; Function Attrs: nofree norecurse nosync nounwind memory(argmem: read) uwtable
define dso_local { i64, i64 } @i128_from_strl(ptr noundef readonly %0, ptr noundef readnone %1) local_unnamed_addr #6 {
  %.not10 = icmp eq ptr %0, %1
  br i1 %.not10, label %._crit_edge, label %.lr.ph

.lr.ph:                                           ; preds = %2, %.lr.ph
  %.sroa.05.013 = phi i64 [ %22, %.lr.ph ], [ 0, %2 ]
  %.sroa.4.012 = phi i64 [ %19, %.lr.ph ], [ 0, %2 ]
  %.011 = phi ptr [ %3, %.lr.ph ], [ %0, %2 ]
  %3 = getelementptr inbounds nuw i8, ptr %.011, i64 1
  %4 = load i8, ptr %.011, align 1
  %5 = and i64 %.sroa.4.012, 4294967295
  %6 = mul nuw nsw i64 %5, 10
  %7 = and i64 %6, 4294967294
  %8 = lshr i64 %6, 32
  %9 = lshr i64 %.sroa.4.012, 32
  %10 = mul nuw nsw i64 %9, 10
  %11 = add nuw nsw i64 %8, %10
  %12 = lshr i64 %11, 32
  %13 = shl i64 %11, 32
  %14 = or disjoint i64 %13, %7
  %15 = mul i64 %.sroa.05.013, 10
  %16 = add i64 %12, %15
  %17 = sext i8 %4 to i64
  %18 = add i64 %14, -48
  %19 = add i64 %18, %17
  %20 = icmp ult i64 %19, %14
  %21 = zext i1 %20 to i64
  %22 = add i64 %16, %21
  %.not = icmp eq ptr %3, %1
  br i1 %.not, label %._crit_edge, label %.lr.ph, !llvm.loop !12

._crit_edge:                                      ; preds = %.lr.ph, %2
  %.sroa.4.0.lcssa = phi i64 [ 0, %2 ], [ %19, %.lr.ph ]
  %.sroa.05.0.lcssa = phi i64 [ 0, %2 ], [ %22, %.lr.ph ]
  %.fca.0.insert = insertvalue { i64, i64 } poison, i64 %.sroa.05.0.lcssa, 0
  %.fca.1.insert = insertvalue { i64, i64 } %.fca.0.insert, i64 %.sroa.4.0.lcssa, 1
  ret { i64, i64 } %.fca.1.insert
}